(lp1
(dp2
S'annotations'
p3
(lp4
(dp5
S'height'
p6
F303
sS'width'
p7
F450
sS'y'
F147
sS'x'
F241
sS'class'
p8
S'rect'
p9
sasg8
S'image'
p10
sS'filename'
p11
S'..\\..\\Dropbox\\unesp\\Disciplina de PDI\\projeto de conclusao\\samples\\sample1.jpg'
p12
sa(dp13
g3
(lp14
(dp15
g6
F227
sg7
F262
sS'y'
F59
sS'x'
F269
sg8
g9
sasg8
g10
sg11
S'..\\..\\Dropbox\\unesp\\Disciplina de PDI\\projeto de conclusao\\samples\\sample2.jpg'
p16
sa(dp17
g3
(lp18
(dp19
g6
F180
sg7
F351
sS'y'
F118
sS'x'
F-1
sg8
g9
sasg8
g10
sg11
S'..\\..\\Dropbox\\unesp\\Disciplina de PDI\\projeto de conclusao\\samples\\sample3.jpg'
p20
sa(dp21
g3
(lp22
(dp23
g6
F149
sg7
F430
sS'y'
F159
sS'x'
F338
sg8
g9
sasg8
g10
sg11
S'..\\..\\Dropbox\\unesp\\Disciplina de PDI\\projeto de conclusao\\samples\\sample4.jpg'
p24
sa(dp25
g3
(lp26
(dp27
g6
F167
sg7
F731
sS'y'
F377
sS'x'
F441
sg8
g9
sasg8
g10
sg11
S'..\\..\\Dropbox\\unesp\\Disciplina de PDI\\projeto de conclusao\\samples\\sample5.jpg'
p28
sa(dp29
g3
(lp30
(dp31
g6
F170
sg7
F236
sS'y'
F50
sS'x'
F181
sg8
g9
sasg8
g10
sg11
S'..\\..\\Dropbox\\unesp\\Disciplina de PDI\\projeto de conclusao\\samples\\sample6.jpg'
p32
sa.